; ModuleID = 'source-C-CXX/12/310.c'
source_filename = "source-C-CXX/12/310.c"
target datalayout = "e-m:e-p270:32:32-p271:32:32-p272:64:64-i64:64-f80:128-n8:16:32:64-S128"
target triple = "x86_64-pc-linux-gnu"

@.str = private unnamed_addr constant [3 x i8] c"%d\00", align 1
@.str.1 = private unnamed_addr constant [4 x i8] c"%d \00", align 1

; Function Attrs: nofree nounwind sspstrong uwtable
define dso_local i32 @main() local_unnamed_addr #0 {
  %1 = alloca [20000 x i32], align 16
  %2 = alloca [20000 x i32], align 16
  %3 = alloca i32, align 4
  %4 = bitcast [20000 x i32]* %1 to i8*
  call void @llvm.lifetime.start.p0i8(i64 80000, i8* nonnull %4) #3
  %5 = bitcast [20000 x i32]* %2 to i8*
  call void @llvm.lifetime.start.p0i8(i64 80000, i8* nonnull %5) #3
  %6 = bitcast i32* %3 to i8*
  call void @llvm.lifetime.start.p0i8(i64 4, i8* nonnull %6) #3
  %7 = call i32 (i8*, ...) @__isoc99_scanf(i8* getelementptr inbounds ([3 x i8], [3 x i8]* @.str, i64 0, i64 0), i32* nonnull %3)
  %8 = load i32, i32* %3, align 4, !tbaa !5
  %9 = icmp sgt i32 %8, 0
  br i1 %9, label %14, label %68

10:                                               ; preds = %14
  %11 = icmp sgt i32 %19, 0
  br i1 %11, label %12, label %68

12:                                               ; preds = %10
  %13 = zext i32 %19 to i64
  br label %22

14:                                               ; preds = %0, %14
  %15 = phi i64 [ %18, %14 ], [ 0, %0 ]
  %16 = getelementptr inbounds [20000 x i32], [20000 x i32]* %1, i64 0, i64 %15
  %17 = call i32 (i8*, ...) @__isoc99_scanf(i8* getelementptr inbounds ([3 x i8], [3 x i8]* @.str, i64 0, i64 0), i32* nonnull %16)
  %18 = add nuw nsw i64 %15, 1
  %19 = load i32, i32* %3, align 4, !tbaa !5
  %20 = sext i32 %19 to i64
  %21 = icmp slt i64 %18, %20
  br i1 %21, label %14, label %10, !llvm.loop !9

22:                                               ; preds = %12, %54
  %23 = phi i64 [ 0, %12 ], [ %56, %54 ]
  %24 = phi i32 [ 0, %12 ], [ %55, %54 ]
  %25 = icmp eq i64 %23, 0
  br i1 %25, label %44, label %26

26:                                               ; preds = %22
  %27 = getelementptr inbounds [20000 x i32], [20000 x i32]* %1, i64 0, i64 %23
  %28 = load i32, i32* %27, align 4, !tbaa !5
  br label %36

29:                                               ; preds = %54
  %30 = icmp slt i32 %55, 1
  br i1 %30, label %68, label %31

31:                                               ; preds = %29
  %32 = zext i32 %55 to i64
  %33 = add nuw i32 %55, 1
  %34 = zext i32 %33 to i64
  %35 = getelementptr inbounds [20000 x i32], [20000 x i32]* %2, i64 0, i64 %32
  br label %58

36:                                               ; preds = %26, %41
  %37 = phi i64 [ 0, %26 ], [ %42, %41 ]
  %38 = getelementptr inbounds [20000 x i32], [20000 x i32]* %1, i64 0, i64 %37
  %39 = load i32, i32* %38, align 4, !tbaa !5
  %40 = icmp eq i32 %28, %39
  br i1 %40, label %44, label %41

41:                                               ; preds = %36
  %42 = add nuw nsw i64 %37, 1
  %43 = icmp eq i64 %42, %23
  br i1 %43, label %44, label %36, !llvm.loop !11

44:                                               ; preds = %41, %36, %22
  %45 = phi i64 [ 0, %22 ], [ %37, %36 ], [ %23, %41 ]
  %46 = and i64 %45, 4294967295
  %47 = icmp eq i64 %46, %23
  br i1 %47, label %48, label %54

48:                                               ; preds = %44
  %49 = add nsw i32 %24, 1
  %50 = getelementptr inbounds [20000 x i32], [20000 x i32]* %1, i64 0, i64 %23
  %51 = load i32, i32* %50, align 4, !tbaa !5
  %52 = sext i32 %49 to i64
  %53 = getelementptr inbounds [20000 x i32], [20000 x i32]* %2, i64 0, i64 %52
  store i32 %51, i32* %53, align 4, !tbaa !5
  br label %54

54:                                               ; preds = %44, %48
  %55 = phi i32 [ %49, %48 ], [ %24, %44 ]
  %56 = add nuw nsw i64 %23, 1
  %57 = icmp eq i64 %56, %13
  br i1 %57, label %29, label %22, !llvm.loop !12

58:                                               ; preds = %31, %58
  %59 = phi i64 [ 1, %31 ], [ %66, %58 ]
  %60 = icmp eq i64 %59, %32
  %61 = getelementptr inbounds [20000 x i32], [20000 x i32]* %2, i64 0, i64 %59
  %62 = select i1 %60, i32* %35, i32* %61
  %63 = select i1 %60, i8* getelementptr inbounds ([3 x i8], [3 x i8]* @.str, i64 0, i64 0), i8* getelementptr inbounds ([4 x i8], [4 x i8]* @.str.1, i64 0, i64 0)
  %64 = load i32, i32* %62, align 4, !tbaa !5
  %65 = call i32 (i8*, ...) @printf(i8* nonnull dereferenceable(1) %63, i32 %64)
  %66 = add nuw nsw i64 %59, 1
  %67 = icmp eq i64 %66, %34
  br i1 %67, label %68, label %58, !llvm.loop !13

68:                                               ; preds = %58, %0, %10, %29
  call void @llvm.lifetime.end.p0i8(i64 4, i8* nonnull %6) #3
  call void @llvm.lifetime.end.p0i8(i64 80000, i8* nonnull %5) #3
  call void @llvm.lifetime.end.p0i8(i64 80000, i8* nonnull %4) #3
  ret i32 0
}

; Function Attrs: argmemonly mustprogress nofree nosync nounwind willreturn
declare void @llvm.lifetime.start.p0i8(i64 immarg, i8* nocapture) #1

; Function Attrs: nofree nounwind
declare noundef i32 @__isoc99_scanf(i8* nocapture noundef readonly, ...) local_unnamed_addr #2

; Function Attrs: nofree nounwind
declare noundef i32 @printf(i8* nocapture noundef readonly, ...) local_unnamed_addr #2

; Function Attrs: argmemonly mustprogress nofree nosync nounwind willreturn
declare void @llvm.lifetime.end.p0i8(i64 immarg, i8* nocapture) #1


!llvm.module.flags = !{!0, !1, !2, !3}
!llvm.ident = !{!4}

!0 = !{i32 1, !"wchar_size", i32 4}
!1 = !{i32 7, !"PIC Level", i32 2}
!2 = !{i32 7, !"PIE Level", i32 2}
!3 = !{i32 7, !"uwtable", i32 1}
!4 = !{!"clang version 13.0.0"}
!5 = !{!6, !6, i64 0}
!6 = !{!"int", !7, i64 0}
!7 = !{!"omnipotent char", !8, i64 0}
!8 = !{!"Simple C/C++ TBAA"}
!9 = distinct !{!9, !10}
!10 = !{!"llvm.loop.mustprogress"}
!11 = distinct !{!11, !10}
!12 = distinct !{!12, !10}
!13 = distinct !{!13, !10}
